target datalayout = "e-m:e-p270:32:32-p271:32:32-p272:64:64-i64:64-i128:128-f80:128-n8:16:32:64-S128"
target triple = "x86_64-pc-linux-gnu"

%struct.H5D_bt2_ud_t = type { %struct.H5D_chunk_rec_t, i32 }
%struct.H5D_chunk_rec_t = type { [33 x i64], i32, i32, i64 }

; Function Attrs: nounwind uwtable
define internal i32 @H5VM_vector_cmp_u(i32 noundef %0, ptr noundef %1, ptr noundef %2) #0 {
  %4 = alloca i32, align 4
  %5 = alloca ptr, align 8
  %6 = alloca ptr, align 8
  %7 = alloca i32, align 4
  store i32 %0, ptr %4, align 4
  store ptr %1, ptr %5, align 8
  store ptr %2, ptr %6, align 8
  store i32 0, ptr %7, align 4
  %8 = load ptr, ptr %5, align 8
  %9 = load ptr, ptr %6, align 8
  %10 = icmp eq ptr %8, %9
  br i1 %10, label %11, label %14

11:                                               ; preds = %3
  br label %12

12:                                               ; preds = %11
  store i32 0, ptr %7, align 4
  br label %55

13:                                               ; No predecessors!
  br label %14

14:                                               ; preds = %13, %3
  %15 = load ptr, ptr %5, align 8
  %16 = icmp eq ptr %15, null
  br i1 %16, label %17, label %20

17:                                               ; preds = %14
  br label %18

18:                                               ; preds = %17
  store i32 -1, ptr %7, align 4
  br label %55

19:                                               ; No predecessors!
  br label %20

20:                                               ; preds = %19, %14
  %21 = load ptr, ptr %6, align 8
  %22 = icmp eq ptr %21, null
  br i1 %22, label %23, label %26

23:                                               ; preds = %20
  br label %24

24:                                               ; preds = %23
  store i32 1, ptr %7, align 4
  br label %55

25:                                               ; No predecessors!
  br label %26

26:                                               ; preds = %25, %20
  br label %27

27:                                               ; preds = %49, %26
  %28 = load i32, ptr %4, align 4
  %29 = add i32 %28, -1
  store i32 %29, ptr %4, align 4
  %30 = icmp ne i32 %28, 0
  br i1 %30, label %31, label %54

31:                                               ; preds = %27
  %32 = load ptr, ptr %5, align 8
  %33 = load i64, ptr %32, align 8
  %34 = load ptr, ptr %6, align 8
  %35 = load i64, ptr %34, align 8
  %36 = icmp ult i64 %33, %35
  br i1 %36, label %37, label %40

37:                                               ; preds = %31
  br label %38

38:                                               ; preds = %37
  store i32 -1, ptr %7, align 4
  br label %55

39:                                               ; No predecessors!
  br label %40

40:                                               ; preds = %39, %31
  %41 = load ptr, ptr %5, align 8
  %42 = load i64, ptr %41, align 8
  %43 = load ptr, ptr %6, align 8
  %44 = load i64, ptr %43, align 8
  %45 = icmp ugt i64 %42, %44
  br i1 %45, label %46, label %49

46:                                               ; preds = %40
  br label %47

47:                                               ; preds = %46
  store i32 1, ptr %7, align 4
  br label %55

48:                                               ; No predecessors!
  br label %49

49:                                               ; preds = %48, %40
  %50 = load ptr, ptr %5, align 8
  %51 = getelementptr inbounds i64, ptr %50, i32 1
  store ptr %51, ptr %5, align 8
  %52 = load ptr, ptr %6, align 8
  %53 = getelementptr inbounds i64, ptr %52, i32 1
  store ptr %53, ptr %6, align 8
  br label %27

54:                                               ; preds = %27
  br label %55

55:                                               ; preds = %54, %47, %38, %24, %18, %12
  %56 = load i32, ptr %7, align 4
  ret i32 %56
}

; Function Attrs: nounwind uwtable
define internal i32 @H5D__bt2_compare(ptr noundef %0, ptr noundef %1, ptr noundef %2) #0 {
  %4 = alloca ptr, align 8
  %5 = alloca ptr, align 8
  %6 = alloca ptr, align 8
  %7 = alloca ptr, align 8
  %8 = alloca ptr, align 8
  %9 = alloca ptr, align 8
  %10 = alloca i32, align 4
  store ptr %0, ptr %4, align 8
  store ptr %1, ptr %5, align 8
  store ptr %2, ptr %6, align 8
  %11 = load ptr, ptr %4, align 8
  store ptr %11, ptr %7, align 8
  %12 = load ptr, ptr %7, align 8
  %13 = getelementptr inbounds %struct.H5D_bt2_ud_t, ptr %12, i32 0, i32 0
  store ptr %13, ptr %8, align 8
  %14 = load ptr, ptr %5, align 8
  store ptr %14, ptr %9, align 8
  store i32 0, ptr %10, align 4
  %15 = load ptr, ptr %7, align 8
  %16 = getelementptr inbounds %struct.H5D_bt2_ud_t, ptr %15, i32 0, i32 1
  %17 = load i32, ptr %16, align 8
  %18 = load ptr, ptr %8, align 8
  %19 = getelementptr inbounds %struct.H5D_chunk_rec_t, ptr %18, i32 0, i32 0
  %20 = getelementptr inbounds [33 x i64], ptr %19, i64 0, i64 0
  %21 = load ptr, ptr %9, align 8
  %22 = getelementptr inbounds %struct.H5D_chunk_rec_t, ptr %21, i32 0, i32 0
  %23 = getelementptr inbounds [33 x i64], ptr %22, i64 0, i64 0
  %24 = call i32 @H5VM_vector_cmp_u(i32 noundef %17, ptr noundef %20, ptr noundef %23)
  %25 = load ptr, ptr %6, align 8
  store i32 %24, ptr %25, align 4
  %26 = load i32, ptr %10, align 4
  ret i32 %26
}