; Function Attrs: nofree norecurse nosync nounwind memory(read, argmem: readwrite, inaccessiblemem: none) uwtable
define internal noundef i32 @H5D__bt2_compare(ptr noundef readonly %0, ptr noundef readonly %1, ptr nocapture noundef writeonly %2) #7 {
  %4 = getelementptr inbounds i8, ptr %0, i64 280
  %5 = load i32, ptr %4, align 8
  %6 = icmp eq ptr %0, %1
  br i1 %6, label %H5VM_vector_cmp_u.exit, label %7

7:                                                ; preds = %3
  %8 = icmp eq ptr %1, null
  br i1 %8, label %H5VM_vector_cmp_u.exit, label %.preheader.i

.preheader.i:                                     ; preds = %7
  %.not18.i = icmp eq i32 %5, 0
  br i1 %.not18.i, label %H5VM_vector_cmp_u.exit, label %.lr.ph.i

.lr.ph.i:                                         ; preds = %.preheader.i, %15
  %.in.i = phi i32 [ %9, %15 ], [ %5, %.preheader.i ]
  %.01120.i = phi ptr [ %17, %15 ], [ %1, %.preheader.i ]
  %.01219.i = phi ptr [ %16, %15 ], [ %0, %.preheader.i ]
  %9 = add i32 %.in.i, -1
  %10 = load i64, ptr %.01219.i, align 8
  %11 = load i64, ptr %.01120.i, align 8
  %12 = icmp ult i64 %10, %11
  br i1 %12, label %H5VM_vector_cmp_u.exit, label %13

13:                                               ; preds = %.lr.ph.i
  %14 = icmp ugt i64 %10, %11
  br i1 %14, label %H5VM_vector_cmp_u.exit, label %15

15:                                               ; preds = %13
  %16 = getelementptr inbounds i8, ptr %.01219.i, i64 8
  %17 = getelementptr inbounds i8, ptr %.01120.i, i64 8
  %.not.i = icmp eq i32 %9, 0
  br i1 %.not.i, label %H5VM_vector_cmp_u.exit, label %.lr.ph.i

H5VM_vector_cmp_u.exit:                           ; preds = %.lr.ph.i, %13, %15, %3, %7, %.preheader.i
  %.0.i = phi i32 [ 0, %3 ], [ 1, %7 ], [ 0, %.preheader.i ], [ 1, %13 ], [ -1, %.lr.ph.i ], [ 0, %15 ]
  store i32 %.0.i, ptr %2, align 4
  ret i32 0
}